; Function Attrs: mustprogress nofree norecurse nosync nounwind willreturn memory(argmem: read) uwtable
define noundef zeroext i1 @_ZNK3zmq6trie_t12is_redundantEv(ptr noundef nonnull readonly align 8 captures(none) dereferenceable(24) %0) local_unnamed_addr #14 align 2 {
  %2 = load i32, ptr %0, align 8, !tbaa !3
  %3 = icmp eq i32 %2, 0
  %4 = getelementptr inbounds nuw i8, ptr %0, i64 8
  %5 = load i16, ptr %4, align 8
  %6 = icmp eq i16 %5, 0
  %7 = select i1 %3, i1 %6, i1 false
  ret i1 %7
}